; Function Attrs: mustprogress uwtable
define hidden void @_ZN3smt15theory_datatype10init_modelERNS_15model_generatorE(ptr nocapture noundef nonnull align 8 dereferenceable(728) %this, ptr noundef nonnull align 8 dereferenceable(104) %mg) unnamed_addr #3 align 2 {
entry:
  %call = tail call noalias noundef ptr @_ZN6memory8allocateEm(i64 noundef 408)
  %m = getelementptr inbounds i8, ptr %this, i64 24
  %0 = load ptr, ptr %m, align 8
  %m_model.i = getelementptr inbounds i8, ptr %mg, i64 72
  %1 = load ptr, ptr %m_model.i, align 8
  tail call void @_ZN16datatype_factoryC1ER11ast_managerR10model_core(ptr noundef nonnull align 8 dereferenceable(408) %call, ptr noundef nonnull align 8 dereferenceable(976) %0, ptr noundef nonnull align 8 dereferenceable(96) %1)
  %m_factory = getelementptr inbounds i8, ptr %this, i64 616
  store ptr %call, ptr %m_factory, align 8
  tail call void @_ZN3smt15model_generator16register_factoryEP13value_factory(ptr noundef nonnull align 8 dereferenceable(104) %mg, ptr noundef nonnull %call)
  ret void
}